; Function Attrs: inlinehint mustprogress nounwind willreturn uwtable
define internal fastcc ptr @Gla_ObjRef(ptr %.8.val.32.val, ptr captures(none) %.144.val, ptr noundef %0, i32 noundef %1) unnamed_addr #3 {
  %3 = ptrtoint ptr %0 to i64
  %4 = ptrtoint ptr %.8.val.32.val to i64
  %5 = sub i64 %3, %4
  %6 = sdiv exact i64 %5, 12
  %sext = shl i64 %6, 32
  %7 = ashr exact i64 %sext, 28
  %8 = getelementptr inbounds i8, ptr %.144.val, i64 %7
  %9 = add nsw i32 %1, 1
  %10 = getelementptr inbounds nuw i8, ptr %8, i64 4
  %11 = load i32, ptr %10, align 4, !tbaa !3
  %.not.i.not.i = icmp slt i32 %1, %11
  br i1 %.not.i.not.i, label %Vec_IntGetEntryP.exit, label %12

12:                                               ; preds = %2
  %13 = load i32, ptr %8, align 8, !tbaa !10
  %14 = shl nsw i32 %13, 1
  %.not.i = icmp slt i32 %1, %14
  %.not.i.i.not.i = icmp sgt i32 %13, %1
  br i1 %.not.i, label %27, label %15

15:                                               ; preds = %12
  br i1 %.not.i.i.not.i, label %Vec_IntGrow.exit.i.i, label %16

16:                                               ; preds = %15
  %17 = getelementptr inbounds nuw i8, ptr %8, i64 8
  %18 = load ptr, ptr %17, align 8, !tbaa !11
  %.not9.i.i.i = icmp eq ptr %18, null
  %19 = sext i32 %9 to i64
  %20 = shl nsw i64 %19, 2
  br i1 %.not9.i.i.i, label %23, label %21

21:                                               ; preds = %16
  %22 = tail call ptr @realloc(ptr noundef nonnull %18, i64 noundef %20) #28
  br label %25

23:                                               ; preds = %16
  %24 = tail call noalias ptr @malloc(i64 noundef %20) #27
  br label %25

25:                                               ; preds = %23, %21
  %26 = phi ptr [ %22, %21 ], [ %24, %23 ]
  store ptr %26, ptr %17, align 8, !tbaa !11
  br label %Vec_IntGrow.exit.sink.split.i.i

27:                                               ; preds = %12
  br i1 %.not.i.i.not.i, label %Vec_IntGrow.exit.i.i, label %28

28:                                               ; preds = %27
  %29 = getelementptr inbounds nuw i8, ptr %8, i64 8
  %30 = load ptr, ptr %29, align 8, !tbaa !11
  %.not9.i21.i.i = icmp eq ptr %30, null
  %31 = sext i32 %14 to i64
  %32 = shl nsw i64 %31, 2
  br i1 %.not9.i21.i.i, label %35, label %33

33:                                               ; preds = %28
  %34 = tail call ptr @realloc(ptr noundef nonnull %30, i64 noundef %32) #28
  br label %37

35:                                               ; preds = %28
  %36 = tail call noalias ptr @malloc(i64 noundef %32) #27
  br label %37

37:                                               ; preds = %35, %33
  %38 = phi ptr [ %34, %33 ], [ %36, %35 ]
  store ptr %38, ptr %29, align 8, !tbaa !11
  br label %Vec_IntGrow.exit.sink.split.i.i

Vec_IntGrow.exit.sink.split.i.i:                  ; preds = %37, %25
  %.sink.i.i = phi i32 [ %14, %37 ], [ %9, %25 ]
  store i32 %.sink.i.i, ptr %8, align 8, !tbaa !10
  %.pre.i = load i32, ptr %10, align 4, !tbaa !3
  br label %Vec_IntGrow.exit.i.i

Vec_IntGrow.exit.i.i:                             ; preds = %Vec_IntGrow.exit.sink.split.i.i, %27, %15
  %39 = phi i32 [ %.pre.i, %Vec_IntGrow.exit.sink.split.i.i ], [ %11, %27 ], [ %11, %15 ]
  %.not3.i = icmp sgt i32 %39, %1
  br i1 %.not3.i, label %._crit_edge.i.i, label %.lr.ph.i.i

.lr.ph.i.i:                                       ; preds = %Vec_IntGrow.exit.i.i
  %40 = getelementptr inbounds nuw i8, ptr %8, i64 8
  %41 = load ptr, ptr %40, align 8, !tbaa !11
  %42 = sext i32 %39 to i64
  %43 = shl nsw i64 %42, 2
  %scevgep.i.i = getelementptr i8, ptr %41, i64 %43
  %44 = sub i32 %1, %39
  %45 = zext i32 %44 to i64
  %46 = shl nuw nsw i64 %45, 2
  %47 = add nuw nsw i64 %46, 4
  tail call void @llvm.memset.p0.i64(ptr noundef nonnull align 4 dereferenceable(1) %scevgep.i.i, i8 0, i64 %47, i1 false), !tbaa !22
  br label %._crit_edge.i.i

._crit_edge.i.i:                                  ; preds = %.lr.ph.i.i, %Vec_IntGrow.exit.i.i
  store i32 %9, ptr %10, align 4, !tbaa !3
  br label %Vec_IntGetEntryP.exit

Vec_IntGetEntryP.exit:                            ; preds = %2, %._crit_edge.i.i
  %48 = getelementptr i8, ptr %8, i64 8
  %.val.i = load ptr, ptr %48, align 8, !tbaa !11
  %49 = sext i32 %1 to i64
  %50 = getelementptr inbounds i32, ptr %.val.i, i64 %49
  ret ptr %50
}